target datalayout = "e-m:e-p270:32:32-p271:32:32-p272:64:64-i64:64-i128:128-f80:128-n8:16:32:64-S128"
target triple = "x86_64-pc-linux-gnu"

%struct.t_acf = type { i64, i32, i32, i32, i32, i8, i8, float, float }
%"class.std::filesystem::__cxx11::path" = type { %"class.std::__cxx11::basic_string", %"struct.std::filesystem::__cxx11::path::_List" }
%"class.std::__cxx11::basic_string" = type { %"struct.std::__cxx11::basic_string<char>::_Alloc_hider", i64, %union.anon }
%"struct.std::__cxx11::basic_string<char>::_Alloc_hider" = type { ptr }
%union.anon = type { i64, [8 x i8] }
%"struct.std::filesystem::__cxx11::path::_List" = type { %"class.std::unique_ptr" }
%"class.std::unique_ptr" = type { %"struct.std::__uniq_ptr_data" }
%"struct.std::__uniq_ptr_data" = type { %"class.std::__uniq_ptr_impl" }
%"class.std::__uniq_ptr_impl" = type { %"class.std::tuple" }
%"class.std::tuple" = type { %"struct.std::_Tuple_impl" }
%"struct.std::_Tuple_impl" = type { %"struct.std::_Head_base.1" }
%"struct.std::_Head_base.1" = type { ptr }

@_ZL3acf = internal global %struct.t_acf zeroinitializer, align 8
@.str = private unnamed_addr constant [139 x i8] c"generated/home/dtcxzyw/WorkSpace/Projects/compilers/llvm-opt-benchmark/bench/gromacs/gromacs/src/gromacs/correlationfunctions/autocorr.cpp\00", align 1
@_ZL8bACFinit = internal global i8 0, align 1
@.str.68 = private unnamed_addr constant [29 x i8] c"ACF data not initialized yet\00", align 1

; Function Attrs: mustprogress uwtable
define noundef i32 @_Z11get_acfnoutv() #0 personality ptr @__gxx_personality_v0 {
  %1 = alloca %"class.std::filesystem::__cxx11::path", align 8
  %2 = alloca ptr, align 8
  %3 = alloca i32, align 4
  %4 = load i8, ptr @_ZL8bACFinit, align 1
  %5 = trunc i8 %4 to i1
  br i1 %5, label %12, label %6

6:                                                ; preds = %0
  call void @_ZNSt10filesystem7__cxx114pathC2IA139_cS1_EERKT_NS1_6formatE(ptr noundef nonnull align 8 dereferenceable(40) %1, ptr noundef nonnull align 1 dereferenceable(139) @.str, i8 noundef zeroext 2)
  invoke void (i32, ptr, i32, ptr, ...) @_Z9gmx_fataliRKNSt10filesystem7__cxx114pathEiPKcz(i32 noundef 0, ptr noundef nonnull align 8 dereferenceable(40) %1, i32 noundef 835, ptr noundef @.str.68) #12
          to label %7 unwind label %8

7:                                                ; preds = %6
  unreachable

8:                                                ; preds = %6
  %9 = landingpad { ptr, i32 }
          cleanup
  %10 = extractvalue { ptr, i32 } %9, 0
  store ptr %10, ptr %2, align 8
  %11 = extractvalue { ptr, i32 } %9, 1
  store i32 %11, ptr %3, align 4
  call void @_ZNSt10filesystem7__cxx114pathD2Ev(ptr noundef nonnull align 8 dereferenceable(40) %1) #13
  br label %14

12:                                               ; preds = %0
  %13 = load i32, ptr getelementptr inbounds (%struct.t_acf, ptr @_ZL3acf, i32 0, i32 2), align 4
  ret i32 %13

14:                                               ; preds = %8
  %15 = load ptr, ptr %2, align 8
  %16 = load i32, ptr %3, align 4
  %17 = insertvalue { ptr, i32 } poison, ptr %15, 0
  %18 = insertvalue { ptr, i32 } %17, i32 %16, 1
  resume { ptr, i32 } %18
}